target datalayout = "e-m:e-p270:32:32-p271:32:32-p272:64:64-i64:64-i128:128-f80:128-n8:16:32:64-S128"
target triple = "x86_64-pc-linux-gnu"

%struct.Vec_Int_t_ = type { i32, i32, ptr }
%struct.Vta_Man_t_ = type { ptr, ptr, i32, i32, i32, ptr, ptr, ptr, i32, i32, ptr, i32, i32, i32, ptr, ptr, i32, i32, ptr, ptr, ptr, i64, i64, i64, i64 }
%struct.Vta_Obj_t_ = type { i32, i32, i32, i32 }
%struct.Gia_Man_t_ = type { ptr, ptr, i32, i32, i32, i32, ptr, ptr, i32, i32, i32, ptr, ptr, %struct.Vec_Int_t_, %struct.Vec_Int_t_, i32, i32, i32, %struct.Vec_Int_t_, ptr, ptr, ptr, i32, i32, i32, i32, ptr, ptr, ptr, ptr, ptr, i32, i32, ptr, i32, ptr, ptr, ptr, ptr, ptr, ptr, ptr, ptr, ptr, ptr, ptr, ptr, ptr, ptr, ptr, ptr, ptr, ptr, %struct.Vec_Int_t_, %struct.Vec_Int_t_, ptr, ptr, ptr, ptr, ptr, ptr, ptr, ptr, ptr, ptr, ptr, ptr, ptr, ptr, ptr, ptr, ptr, ptr, ptr, ptr, ptr, i32, float, float, ptr, ptr, i32, ptr, ptr, ptr, ptr, ptr, ptr, ptr, ptr, ptr, ptr, ptr, ptr, ptr, ptr, ptr, i64, i64, ptr, ptr, i32, i32, i32, i32, i32, i32, i32, i32, i32, i32, i32, i32, ptr, ptr, ptr, ptr, ptr, ptr, ptr, ptr, i32, i32, i32, ptr, i32, i32, ptr, ptr, ptr, ptr, ptr, ptr, i32, i32, ptr, %struct.Vec_Int_t_, %struct.Vec_Int_t_, %struct.Vec_Int_t_, ptr, ptr, ptr, i32, i32, i32, i32, ptr, ptr, ptr, ptr, ptr }
%struct.Gia_Obj_t_ = type <{ i64, i32 }>

; Function Attrs: inlinehint nounwind uwtable
define internal i32 @Vga_ManHash(i32 noundef %0, i32 noundef %1, i32 noundef %2) #2 {
  %4 = alloca i32, align 4
  %5 = alloca i32, align 4
  %6 = alloca i32, align 4
  store i32 %0, ptr %4, align 4, !tbaa !8
  store i32 %1, ptr %5, align 4, !tbaa !8
  store i32 %2, ptr %6, align 4, !tbaa !8
  %7 = load i32, ptr %4, align 4, !tbaa !8
  %8 = load i32, ptr %5, align 4, !tbaa !8
  %9 = add nsw i32 %7, %8
  %10 = load i32, ptr %4, align 4, !tbaa !8
  %11 = load i32, ptr %5, align 4, !tbaa !8
  %12 = add nsw i32 %10, %11
  %13 = add nsw i32 %12, 1
  %14 = mul nsw i32 %9, %13
  %15 = load i32, ptr %6, align 4, !tbaa !8
  %16 = urem i32 %14, %15
  ret i32 %16
}

; Function Attrs: inlinehint nounwind uwtable
define internal ptr @Gia_ManObj(ptr noundef %0, i32 noundef %1) #2 {
  %3 = alloca ptr, align 8
  %4 = alloca i32, align 4
  store ptr %0, ptr %3, align 8, !tbaa !67
  store i32 %1, ptr %4, align 4, !tbaa !8
  %5 = load ptr, ptr %3, align 8, !tbaa !67
  %6 = getelementptr inbounds nuw %struct.Gia_Man_t_, ptr %5, i32 0, i32 6
  %7 = load ptr, ptr %6, align 8, !tbaa !80
  %8 = load i32, ptr %4, align 4, !tbaa !8
  %9 = sext i32 %8 to i64
  %10 = getelementptr inbounds %struct.Gia_Obj_t_, ptr %7, i64 %9
  ret ptr %10
}

; Function Attrs: inlinehint nounwind uwtable
define internal i32 @Vec_IntEntry(ptr noundef %0, i32 noundef %1) #2 {
  %3 = alloca ptr, align 8
  %4 = alloca i32, align 4
  store ptr %0, ptr %3, align 8, !tbaa !3
  store i32 %1, ptr %4, align 4, !tbaa !8
  %5 = load ptr, ptr %3, align 8, !tbaa !3
  %6 = getelementptr inbounds nuw %struct.Vec_Int_t_, ptr %5, i32 0, i32 2
  %7 = load ptr, ptr %6, align 8, !tbaa !15
  %8 = load i32, ptr %4, align 4, !tbaa !8
  %9 = sext i32 %8 to i64
  %10 = getelementptr inbounds i32, ptr %7, i64 %9
  %11 = load i32, ptr %10, align 4, !tbaa !8
  ret i32 %11
}

; Function Attrs: inlinehint nounwind uwtable
define internal ptr @Vta_ManObj(ptr noundef %0, i32 noundef %1) #2 {
  %3 = alloca ptr, align 8
  %4 = alloca i32, align 4
  store ptr %0, ptr %3, align 8, !tbaa !37
  store i32 %1, ptr %4, align 4, !tbaa !8
  %5 = load i32, ptr %4, align 4, !tbaa !8
  %6 = icmp ne i32 %5, 0
  br i1 %6, label %7, label %14

7:                                                ; preds = %2
  %8 = load ptr, ptr %3, align 8, !tbaa !37
  %9 = getelementptr inbounds nuw %struct.Vta_Man_t_, ptr %8, i32 0, i32 6
  %10 = load ptr, ptr %9, align 8, !tbaa !79
  %11 = load i32, ptr %4, align 4, !tbaa !8
  %12 = sext i32 %11 to i64
  %13 = getelementptr inbounds %struct.Vta_Obj_t_, ptr %10, i64 %12
  br label %15

14:                                               ; preds = %2
  br label %15

15:                                               ; preds = %14, %7
  %16 = phi ptr [ %13, %7 ], [ null, %14 ]
  ret ptr %16
}

; Function Attrs: inlinehint nounwind uwtable
define internal ptr @Vga_ManLookup(ptr noundef %0, i32 noundef %1, i32 noundef %2) #2 {
  %4 = alloca ptr, align 8
  %5 = alloca i32, align 4
  %6 = alloca i32, align 4
  %7 = alloca ptr, align 8
  %8 = alloca ptr, align 8
  store ptr %0, ptr %4, align 8, !tbaa !37
  store i32 %1, ptr %5, align 4, !tbaa !8
  store i32 %2, ptr %6, align 4, !tbaa !8
  call void @llvm.lifetime.start.p0(i64 8, ptr %7) #13
  call void @llvm.lifetime.start.p0(i64 8, ptr %8) #13
  %9 = load ptr, ptr %4, align 8, !tbaa !37
  %10 = getelementptr inbounds nuw %struct.Vta_Man_t_, ptr %9, i32 0, i32 5
  %11 = load ptr, ptr %10, align 8, !tbaa !132
  %12 = load i32, ptr %5, align 4, !tbaa !8
  %13 = load i32, ptr %6, align 4, !tbaa !8
  %14 = load ptr, ptr %4, align 8, !tbaa !37
  %15 = getelementptr inbounds nuw %struct.Vta_Man_t_, ptr %14, i32 0, i32 4
  %16 = load i32, ptr %15, align 8, !tbaa !131
  %17 = call i32 @Vga_ManHash(i32 noundef %12, i32 noundef %13, i32 noundef %16)
  %18 = sext i32 %17 to i64
  %19 = getelementptr inbounds i32, ptr %11, i64 %18
  store ptr %19, ptr %8, align 8, !tbaa !34
  %20 = load ptr, ptr %4, align 8, !tbaa !37
  %21 = load ptr, ptr %8, align 8, !tbaa !34
  %22 = load i32, ptr %21, align 4, !tbaa !8
  %23 = call ptr @Vta_ManObj(ptr noundef %20, i32 noundef %22)
  store ptr %23, ptr %7, align 8, !tbaa !57
  br label %24

24:                                               ; preds = %41, %3
  %25 = load ptr, ptr %7, align 8, !tbaa !57
  %26 = icmp ne ptr %25, null
  br i1 %26, label %27, label %48

27:                                               ; preds = %24
  %28 = load ptr, ptr %7, align 8, !tbaa !57
  %29 = getelementptr inbounds nuw %struct.Vta_Obj_t_, ptr %28, i32 0, i32 0
  %30 = load i32, ptr %29, align 4, !tbaa !58
  %31 = load i32, ptr %5, align 4, !tbaa !8
  %32 = icmp eq i32 %30, %31
  br i1 %32, label %33, label %40

33:                                               ; preds = %27
  %34 = load ptr, ptr %7, align 8, !tbaa !57
  %35 = getelementptr inbounds nuw %struct.Vta_Obj_t_, ptr %34, i32 0, i32 1
  %36 = load i32, ptr %35, align 4, !tbaa !64
  %37 = load i32, ptr %6, align 4, !tbaa !8
  %38 = icmp eq i32 %36, %37
  br i1 %38, label %39, label %40

39:                                               ; preds = %33
  br label %48

40:                                               ; preds = %33, %27
  br label %41

41:                                               ; preds = %40
  %42 = load ptr, ptr %7, align 8, !tbaa !57
  %43 = getelementptr inbounds nuw %struct.Vta_Obj_t_, ptr %42, i32 0, i32 2
  store ptr %43, ptr %8, align 8, !tbaa !34
  %44 = load ptr, ptr %4, align 8, !tbaa !37
  %45 = load ptr, ptr %8, align 8, !tbaa !34
  %46 = load i32, ptr %45, align 4, !tbaa !8
  %47 = call ptr @Vta_ManObj(ptr noundef %44, i32 noundef %46)
  store ptr %47, ptr %7, align 8, !tbaa !57
  br label %24, !llvm.loop !209

48:                                               ; preds = %39, %24
  %49 = load ptr, ptr %8, align 8, !tbaa !34
  call void @llvm.lifetime.end.p0(i64 8, ptr %8) #13
  call void @llvm.lifetime.end.p0(i64 8, ptr %7) #13
  ret ptr %49
}

; Function Attrs: inlinehint nounwind uwtable
define internal i32 @Gia_ObjFaninId0(ptr noundef %0, i32 noundef %1) #2 {
  %3 = alloca ptr, align 8
  %4 = alloca i32, align 4
  store ptr %0, ptr %3, align 8, !tbaa !60
  store i32 %1, ptr %4, align 4, !tbaa !8
  %5 = load i32, ptr %4, align 4, !tbaa !8
  %6 = load ptr, ptr %3, align 8, !tbaa !60
  %7 = load i64, ptr %6, align 4
  %8 = and i64 %7, 536870911
  %9 = trunc i64 %8 to i32
  %10 = sub nsw i32 %5, %9
  ret i32 %10
}

; Function Attrs: inlinehint nounwind uwtable
define internal i32 @Gia_ObjId(ptr noundef %0, ptr noundef %1) #2 {
  %3 = alloca ptr, align 8
  %4 = alloca ptr, align 8
  store ptr %0, ptr %3, align 8, !tbaa !67
  store ptr %1, ptr %4, align 8, !tbaa !60
  %5 = load ptr, ptr %4, align 8, !tbaa !60
  %6 = load ptr, ptr %3, align 8, !tbaa !67
  %7 = getelementptr inbounds nuw %struct.Gia_Man_t_, ptr %6, i32 0, i32 6
  %8 = load ptr, ptr %7, align 8, !tbaa !80
  %9 = ptrtoint ptr %5 to i64
  %10 = ptrtoint ptr %8 to i64
  %11 = sub i64 %9, %10
  %12 = sdiv exact i64 %11, 12
  %13 = trunc i64 %12 to i32
  ret i32 %13
}

; Function Attrs: inlinehint nounwind uwtable
define internal ptr @Gia_ManCo(ptr noundef %0, i32 noundef %1) #2 {
  %3 = alloca ptr, align 8
  %4 = alloca i32, align 4
  store ptr %0, ptr %3, align 8, !tbaa !67
  store i32 %1, ptr %4, align 4, !tbaa !8
  %5 = load ptr, ptr %3, align 8, !tbaa !67
  %6 = load ptr, ptr %3, align 8, !tbaa !67
  %7 = getelementptr inbounds nuw %struct.Gia_Man_t_, ptr %6, i32 0, i32 12
  %8 = load ptr, ptr %7, align 8, !tbaa !172
  %9 = load i32, ptr %4, align 4, !tbaa !8
  %10 = call i32 @Vec_IntEntry(ptr noundef %8, i32 noundef %9)
  %11 = call ptr @Gia_ManObj(ptr noundef %5, i32 noundef %10)
  ret ptr %11
}

; Function Attrs: inlinehint nounwind uwtable
define internal ptr @Vga_ManFind(ptr noundef %0, i32 noundef %1, i32 noundef %2) #2 {
  %4 = alloca ptr, align 8
  %5 = alloca i32, align 4
  %6 = alloca i32, align 4
  %7 = alloca ptr, align 8
  store ptr %0, ptr %4, align 8, !tbaa !37
  store i32 %1, ptr %5, align 4, !tbaa !8
  store i32 %2, ptr %6, align 4, !tbaa !8
  call void @llvm.lifetime.start.p0(i64 8, ptr %7) #13
  %8 = load ptr, ptr %4, align 8, !tbaa !37
  %9 = load i32, ptr %5, align 4, !tbaa !8
  %10 = load i32, ptr %6, align 4, !tbaa !8
  %11 = call ptr @Vga_ManLookup(ptr noundef %8, i32 noundef %9, i32 noundef %10)
  store ptr %11, ptr %7, align 8, !tbaa !34
  %12 = load ptr, ptr %4, align 8, !tbaa !37
  %13 = load ptr, ptr %7, align 8, !tbaa !34
  %14 = load i32, ptr %13, align 4, !tbaa !8
  %15 = call ptr @Vta_ManObj(ptr noundef %12, i32 noundef %14)
  call void @llvm.lifetime.end.p0(i64 8, ptr %7) #13
  ret ptr %15
}

; Function Attrs: inlinehint nounwind uwtable
define internal i32 @Gia_ObjFaninId0p(ptr noundef %0, ptr noundef %1) #2 {
  %3 = alloca ptr, align 8
  %4 = alloca ptr, align 8
  store ptr %0, ptr %3, align 8, !tbaa !67
  store ptr %1, ptr %4, align 8, !tbaa !60
  %5 = load ptr, ptr %4, align 8, !tbaa !60
  %6 = load ptr, ptr %3, align 8, !tbaa !67
  %7 = load ptr, ptr %4, align 8, !tbaa !60
  %8 = call i32 @Gia_ObjId(ptr noundef %6, ptr noundef %7)
  %9 = call i32 @Gia_ObjFaninId0(ptr noundef %5, i32 noundef %8)
  ret i32 %9
}

; Function Attrs: inlinehint nounwind uwtable
define internal ptr @Gia_ManPo(ptr noundef %0, i32 noundef %1) #2 {
  %3 = alloca ptr, align 8
  %4 = alloca i32, align 4
  store ptr %0, ptr %3, align 8, !tbaa !67
  store i32 %1, ptr %4, align 4, !tbaa !8
  %5 = load ptr, ptr %3, align 8, !tbaa !67
  %6 = load i32, ptr %4, align 4, !tbaa !8
  %7 = call ptr @Gia_ManCo(ptr noundef %5, i32 noundef %6)
  ret ptr %7
}

; Function Attrs: inlinehint nounwind uwtable
define internal void @Vec_IntClear(ptr noundef %0) #2 {
  %2 = alloca ptr, align 8
  store ptr %0, ptr %2, align 8, !tbaa !3
  %3 = load ptr, ptr %2, align 8, !tbaa !3
  %4 = getelementptr inbounds nuw %struct.Vec_Int_t_, ptr %3, i32 0, i32 1
  store i32 0, ptr %4, align 4, !tbaa !22
  ret void
}

; Function Attrs: nounwind uwtable
define ptr @Vta_ManCollectNodes(ptr noundef %0, i32 noundef %1) #0 {
  %3 = alloca ptr, align 8
  %4 = alloca i32, align 4
  %5 = alloca ptr, align 8
  %6 = alloca ptr, align 8
  store ptr %0, ptr %3, align 8, !tbaa !37
  store i32 %1, ptr %4, align 4, !tbaa !8
  call void @llvm.lifetime.start.p0(i64 8, ptr %5) #13
  call void @llvm.lifetime.start.p0(i64 8, ptr %6) #13
  %7 = load ptr, ptr %3, align 8, !tbaa !37
  %8 = getelementptr inbounds nuw %struct.Vta_Man_t_, ptr %7, i32 0, i32 7
  %9 = load ptr, ptr %8, align 8, !tbaa !101
  call void @Vec_IntClear(ptr noundef %9)
  %10 = load ptr, ptr %3, align 8, !tbaa !37
  %11 = getelementptr inbounds nuw %struct.Vta_Man_t_, ptr %10, i32 0, i32 0
  %12 = load ptr, ptr %11, align 8, !tbaa !39
  %13 = call ptr @Gia_ManPo(ptr noundef %12, i32 noundef 0)
  store ptr %13, ptr %6, align 8, !tbaa !60
  %14 = load ptr, ptr %3, align 8, !tbaa !37
  %15 = load ptr, ptr %3, align 8, !tbaa !37
  %16 = getelementptr inbounds nuw %struct.Vta_Man_t_, ptr %15, i32 0, i32 0
  %17 = load ptr, ptr %16, align 8, !tbaa !39
  %18 = load ptr, ptr %6, align 8, !tbaa !60
  %19 = call i32 @Gia_ObjFaninId0p(ptr noundef %17, ptr noundef %18)
  %20 = load i32, ptr %4, align 4, !tbaa !8
  %21 = call ptr @Vga_ManFind(ptr noundef %14, i32 noundef %19, i32 noundef %20)
  store ptr %21, ptr %5, align 8, !tbaa !57
  %22 = load ptr, ptr %3, align 8, !tbaa !37
  %23 = load ptr, ptr %5, align 8, !tbaa !57
  %24 = load ptr, ptr %3, align 8, !tbaa !37
  %25 = getelementptr inbounds nuw %struct.Vta_Man_t_, ptr %24, i32 0, i32 7
  %26 = load ptr, ptr %25, align 8, !tbaa !101
  call void @Vta_ManCollectNodes_rec(ptr noundef %22, ptr noundef %23, ptr noundef %26)
  %27 = load ptr, ptr %3, align 8, !tbaa !37
  %28 = getelementptr inbounds nuw %struct.Vta_Man_t_, ptr %27, i32 0, i32 7
  %29 = load ptr, ptr %28, align 8, !tbaa !101
  call void @llvm.lifetime.end.p0(i64 8, ptr %6) #13
  call void @llvm.lifetime.end.p0(i64 8, ptr %5) #13
  ret ptr %29
}