; Function Attrs: nounwind uwtable
define ptr @Vta_ManCollectNodes(ptr noundef %0, i32 noundef %1) local_unnamed_addr #0 {
  %3 = getelementptr inbounds nuw i8, ptr %0, i64 48
  %4 = load ptr, ptr %3, align 8, !tbaa !92
  %5 = getelementptr inbounds nuw i8, ptr %4, i64 4
  store i32 0, ptr %5, align 4, !tbaa !15
  %6 = load ptr, ptr %0, align 8, !tbaa !30
  %7 = getelementptr i8, ptr %6, i64 32
  %.val9 = load ptr, ptr %7, align 8, !tbaa !63
  %8 = getelementptr i8, ptr %6, i64 72
  %.val10 = load ptr, ptr %8, align 8, !tbaa !91
  %9 = getelementptr i8, ptr %.val10, i64 8
  %.val10.val = load ptr, ptr %9, align 8, !tbaa !3
  %.val10.val.val = load i32, ptr %.val10.val, align 4, !tbaa !10
  %10 = sext i32 %.val10.val.val to i64
  %11 = getelementptr inbounds %struct.Gia_Obj_t_, ptr %.val9, i64 %10
  %.val3.i = load i64, ptr %11, align 4
  %12 = trunc i64 %.val3.i to i32
  %13 = and i32 %12, 536870911
  %14 = sub nsw i32 %.val10.val.val, %13
  %15 = getelementptr inbounds nuw i8, ptr %0, i64 32
  %16 = load ptr, ptr %15, align 8, !tbaa !89
  %17 = getelementptr inbounds nuw i8, ptr %0, i64 24
  %18 = load i32, ptr %17, align 8, !tbaa !90
  %19 = add nsw i32 %14, %1
  %20 = add nsw i32 %19, 1
  %21 = mul nsw i32 %20, %19
  %22 = urem i32 %21, %18
  %23 = sext i32 %22 to i64
  %24 = getelementptr inbounds i32, ptr %16, i64 %23
  %25 = load i32, ptr %24, align 4, !tbaa !10
  %.not.i.i.i = icmp eq i32 %25, 0
  br i1 %.not.i.i.i, label %Vga_ManFind.exit, label %Vta_ManObj.exit.i.i

Vta_ManObj.exit.i.i:                              ; preds = %2
  %26 = getelementptr inbounds nuw i8, ptr %0, i64 40
  %27 = load ptr, ptr %26, align 8, !tbaa !62
  br label %Vta_ManObj.exit16.i.i

Vta_ManObj.exit16.i.i:                            ; preds = %34, %Vta_ManObj.exit.i.i
  %.pr.i = phi i32 [ %25, %Vta_ManObj.exit.i.i ], [ %36, %34 ]
  %.pn.i = sext i32 %.pr.i to i64
  %.01418.i.i = getelementptr inbounds %struct.Vta_Obj_t_, ptr %27, i64 %.pn.i
  %28 = load i32, ptr %.01418.i.i, align 4, !tbaa !64
  %29 = icmp eq i32 %28, %14
  br i1 %29, label %30, label %34

30:                                               ; preds = %Vta_ManObj.exit16.i.i
  %31 = getelementptr inbounds nuw i8, ptr %.01418.i.i, i64 4
  %32 = load i32, ptr %31, align 4, !tbaa !80
  %33 = icmp eq i32 %32, %1
  br i1 %33, label %Vga_ManFind.exit, label %34

34:                                               ; preds = %30, %Vta_ManObj.exit16.i.i
  %35 = getelementptr inbounds nuw i8, ptr %.01418.i.i, i64 8
  %36 = load i32, ptr %35, align 4, !tbaa !10
  %.not.i15.i.i = icmp eq i32 %36, 0
  br i1 %.not.i15.i.i, label %Vga_ManFind.exit, label %Vta_ManObj.exit16.i.i

Vga_ManFind.exit:                                 ; preds = %30, %34, %2
  %37 = phi ptr [ null, %2 ], [ %.01418.i.i, %30 ], [ null, %34 ]
  tail call void @Vta_ManCollectNodes_rec(ptr noundef nonnull %0, ptr noundef %37, ptr noundef %4)
  %38 = load ptr, ptr %3, align 8, !tbaa !92
  ret ptr %38
}